target datalayout = "e-m:e-p270:32:32-p271:32:32-p272:64:64-i64:64-i128:128-f80:128-n8:16:32:64-S128"
target triple = "x86_64-pc-linux-gnu"

%class.XMMRegister = type { i32 }
%class.KRegister = type { i32 }
%class.MachNode = type { %class.Node.base, i8, i16, ptr }
%class.Node.base = type <{ ptr, ptr, ptr, i32, i32, i32, i32, i32, i32, i32 }>
%class.MachTypeNode = type { %class.MachNode, ptr }
%class.vlshift_reg_maskedNode = type { %class.MachTypeNode, [4 x ptr] }

@g_assert_poison = external global ptr, align 8
@.str.22 = private unnamed_addr constant [27 x i8] c"src/hotspot/cpu/x86/x86.ad\00", align 1
@_ZL6xnoreg = internal constant %class.XMMRegister { i32 -1 }, align 4
@_ZL6knoreg = internal constant %class.KRegister { i32 -1 }, align 4

; Function Attrs: mustprogress nounwind uwtable
define linkonce_odr hidden void @_ZN11XMMRegisterC2Eib(ptr noundef nonnull align 4 dereferenceable(4) %0, i32 noundef %1, i1 noundef zeroext %2) unnamed_addr #1 comdat align 2 {
  %4 = alloca ptr, align 8
  %5 = alloca i32, align 4
  %6 = alloca i8, align 1
  store ptr %0, ptr %4, align 8
  store i32 %1, ptr %5, align 4
  %7 = zext i1 %2 to i8
  store i8 %7, ptr %6, align 1
  %8 = load ptr, ptr %4, align 8
  %9 = getelementptr inbounds %class.XMMRegister, ptr %8, i32 0, i32 0
  %10 = load i32, ptr %5, align 4
  store i32 %10, ptr %9, align 4
  ret void
}

; Function Attrs: mustprogress nounwind uwtable
define linkonce_odr hidden void @_ZN9KRegisterC2Eib(ptr noundef nonnull align 4 dereferenceable(4) %0, i32 noundef %1, i1 noundef zeroext %2) unnamed_addr #1 comdat align 2 {
  %4 = alloca ptr, align 8
  %5 = alloca i32, align 4
  %6 = alloca i8, align 1
  store ptr %0, ptr %4, align 8
  store i32 %1, ptr %5, align 4
  %7 = zext i1 %2 to i8
  store i8 %7, ptr %6, align 1
  %8 = load ptr, ptr %4, align 8
  %9 = getelementptr inbounds %class.KRegister, ptr %8, i32 0, i32 0
  %10 = load i32, ptr %5, align 4
  store i32 %10, ptr %9, align 4
  ret void
}

; Function Attrs: mustprogress nounwind uwtable
define linkonce_odr hidden i32 @_Z14as_XMMRegisteri(i32 noundef %0) #1 comdat {
  %2 = alloca %class.XMMRegister, align 4
  %3 = alloca i32, align 4
  store i32 %0, ptr %3, align 4
  %4 = load i32, ptr %3, align 4
  %5 = icmp sle i32 0, %4
  br i1 %5, label %6, label %11

6:                                                ; preds = %1
  %7 = load i32, ptr %3, align 4
  %8 = icmp slt i32 %7, 32
  br i1 %8, label %9, label %11

9:                                                ; preds = %6
  %10 = load i32, ptr %3, align 4
  call void @_ZN11XMMRegisterC2Eib(ptr noundef nonnull align 4 dereferenceable(4) %2, i32 noundef %10, i1 noundef zeroext false)
  br label %12

11:                                               ; preds = %6, %1
  call void @llvm.memcpy.p0.p0.i64(ptr align 4 %2, ptr align 4 @_ZL6xnoreg, i64 4, i1 false)
  br label %12

12:                                               ; preds = %11, %9
  %13 = getelementptr inbounds %class.XMMRegister, ptr %2, i32 0, i32 0
  %14 = load i32, ptr %13, align 4
  ret i32 %14
}

; Function Attrs: mustprogress nounwind uwtable
define linkonce_odr hidden i32 @_Z12as_KRegisteri(i32 noundef %0) #1 comdat {
  %2 = alloca %class.KRegister, align 4
  %3 = alloca i32, align 4
  store i32 %0, ptr %3, align 4
  %4 = load i32, ptr %3, align 4
  %5 = icmp sle i32 0, %4
  br i1 %5, label %6, label %11

6:                                                ; preds = %1
  %7 = load i32, ptr %3, align 4
  %8 = icmp slt i32 %7, 8
  br i1 %8, label %9, label %11

9:                                                ; preds = %6
  %10 = load i32, ptr %3, align 4
  call void @_ZN9KRegisterC2Eib(ptr noundef nonnull align 4 dereferenceable(4) %2, i32 noundef %10, i1 noundef zeroext false)
  br label %12

11:                                               ; preds = %6, %1
  call void @llvm.memcpy.p0.p0.i64(ptr align 4 %2, ptr align 4 @_ZL6knoreg, i64 4, i1 false)
  br label %12

12:                                               ; preds = %11, %9
  %13 = getelementptr inbounds %class.KRegister, ptr %2, i32 0, i32 0
  %14 = load i32, ptr %13, align 4
  ret i32 %14
}

; Function Attrs: mustprogress nounwind uwtable
define linkonce_odr hidden noundef i32 @_Z22vector_length_encodingi(i32 noundef %0) #1 comdat {
  %2 = alloca i32, align 4
  %3 = alloca i32, align 4
  store i32 %0, ptr %3, align 4
  %4 = load i32, ptr %3, align 4
  switch i32 %4, label %8 [
    i32 4, label %5
    i32 8, label %5
    i32 16, label %5
    i32 32, label %6
    i32 64, label %7
  ]

5:                                                ; preds = %1, %1, %1
  store i32 0, ptr %2, align 4
  br label %12

6:                                                ; preds = %1
  store i32 1, ptr %2, align 4
  br label %12

7:                                                ; preds = %1
  store i32 2, ptr %2, align 4
  br label %12

8:                                                ; preds = %1
  br label %9

9:                                                ; preds = %8
  %10 = load ptr, ptr @g_assert_poison, align 8
  store i8 88, ptr %10, align 1
  call void @_Z28report_should_not_reach_herePKci(ptr noundef @.str.22, i32 noundef 1228) #8
  unreachable

11:                                               ; No predecessors!
  store i32 4, ptr %2, align 4
  br label %12

12:                                               ; preds = %11, %7, %6, %5
  %13 = load i32, ptr %2, align 4
  ret i32 %13
}

; Function Attrs: mustprogress nounwind uwtable
define linkonce_odr hidden i32 @_ZNK8MachOper14as_XMMRegisterEP13PhaseRegAllocPK4Nodei(ptr noundef nonnull align 8 dereferenceable(8) %0, ptr noundef %1, ptr noundef %2, i32 noundef %3) #1 comdat align 2 {
  %5 = alloca %class.XMMRegister, align 4
  %6 = alloca ptr, align 8
  %7 = alloca ptr, align 8
  %8 = alloca ptr, align 8
  %9 = alloca i32, align 4
  store ptr %0, ptr %6, align 8
  store ptr %1, ptr %7, align 8
  store ptr %2, ptr %8, align 8
  store i32 %3, ptr %9, align 4
  %10 = load ptr, ptr %6, align 8
  %11 = load ptr, ptr %7, align 8
  %12 = load ptr, ptr %8, align 8
  %13 = load i32, ptr %9, align 4
  %14 = load ptr, ptr %10, align 8
  %15 = getelementptr inbounds ptr, ptr %14, i64 5
  %16 = load ptr, ptr %15, align 8
  %17 = call noundef i32 %16(ptr noundef nonnull align 8 dereferenceable(8) %10, ptr noundef %11, ptr noundef %12, i32 noundef %13)
  %18 = call i32 @_Z14as_XMMRegisteri(i32 noundef %17)
  %19 = getelementptr inbounds %class.XMMRegister, ptr %5, i32 0, i32 0
  store i32 %18, ptr %19, align 4
  %20 = getelementptr inbounds %class.XMMRegister, ptr %5, i32 0, i32 0
  %21 = load i32, ptr %20, align 4
  ret i32 %21
}

; Function Attrs: mustprogress nounwind uwtable
define linkonce_odr hidden i32 @_ZNK8MachOper12as_KRegisterEP13PhaseRegAllocPK4Nodei(ptr noundef nonnull align 8 dereferenceable(8) %0, ptr noundef %1, ptr noundef %2, i32 noundef %3) #1 comdat align 2 {
  %5 = alloca %class.KRegister, align 4
  %6 = alloca ptr, align 8
  %7 = alloca ptr, align 8
  %8 = alloca ptr, align 8
  %9 = alloca i32, align 4
  store ptr %0, ptr %6, align 8
  store ptr %1, ptr %7, align 8
  store ptr %2, ptr %8, align 8
  store i32 %3, ptr %9, align 4
  %10 = load ptr, ptr %6, align 8
  %11 = load ptr, ptr %7, align 8
  %12 = load ptr, ptr %8, align 8
  %13 = load i32, ptr %9, align 4
  %14 = load ptr, ptr %10, align 8
  %15 = getelementptr inbounds ptr, ptr %14, i64 5
  %16 = load ptr, ptr %15, align 8
  %17 = call noundef i32 %16(ptr noundef nonnull align 8 dereferenceable(8) %10, ptr noundef %11, ptr noundef %12, i32 noundef %13)
  %18 = call i32 @_Z12as_KRegisteri(i32 noundef %17)
  %19 = getelementptr inbounds %class.KRegister, ptr %5, i32 0, i32 0
  store i32 %18, ptr %19, align 4
  %20 = getelementptr inbounds %class.KRegister, ptr %5, i32 0, i32 0
  %21 = load i32, ptr %20, align 4
  ret i32 %21
}

; Function Attrs: mustprogress nounwind uwtable
define internal noundef i32 @_ZL22vector_length_encodingPK4Node(ptr noundef %0) #1 {
  %2 = alloca ptr, align 8
  store ptr %0, ptr %2, align 8
  %3 = load ptr, ptr %2, align 8
  %4 = call noundef i32 @_ZN7Matcher22vector_length_in_bytesEPK4Node(ptr noundef %3)
  %5 = call noundef i32 @_Z22vector_length_encodingi(i32 noundef %4)
  ret i32 %5
}

; Function Attrs: mustprogress nounwind uwtable
define linkonce_odr hidden noundef ptr @_ZNK22vlshift_reg_maskedNode10opnd_arrayEj(ptr noundef nonnull align 8 dereferenceable(104) %0, i32 noundef %1) #1 comdat align 2 {
  %3 = alloca ptr, align 8
  %4 = alloca i32, align 4
  store ptr %0, ptr %3, align 8
  store i32 %1, ptr %4, align 4
  %5 = load ptr, ptr %3, align 8
  %6 = getelementptr inbounds %class.vlshift_reg_maskedNode, ptr %5, i32 0, i32 1
  %7 = load i32, ptr %4, align 4
  %8 = zext i32 %7 to i64
  %9 = getelementptr inbounds [4 x ptr], ptr %6, i64 0, i64 %8
  %10 = load ptr, ptr %9, align 8
  ret ptr %10
}

; Function Attrs: mustprogress nounwind uwtable
define hidden void @_ZNK22vlshift_reg_maskedNode4emitEP17C2_MacroAssemblerP13PhaseRegAlloc(ptr noundef nonnull align 8 dereferenceable(104) %0, ptr noundef %1, ptr noundef %2) unnamed_addr #1 align 2 {
  %4 = alloca ptr, align 8
  %5 = alloca ptr, align 8
  %6 = alloca ptr, align 8
  %7 = alloca i32, align 4
  %8 = alloca i32, align 4
  %9 = alloca i32, align 4
  %10 = alloca i32, align 4
  %11 = alloca i32, align 4
  %12 = alloca i8, align 1
  %13 = alloca i32, align 4
  %14 = alloca %class.KRegister, align 4
  %15 = alloca %class.XMMRegister, align 4
  %16 = alloca %class.XMMRegister, align 4
  %17 = alloca %class.XMMRegister, align 4
  store ptr %0, ptr %4, align 8
  store ptr %1, ptr %5, align 8
  store ptr %2, ptr %6, align 8
  %18 = load ptr, ptr %4, align 8
  store i32 1, ptr %7, align 4
  store i32 1, ptr %8, align 4
  %19 = load i32, ptr %8, align 4
  %20 = call noundef ptr @_ZNK22vlshift_reg_maskedNode10opnd_arrayEj(ptr noundef nonnull align 8 dereferenceable(104) %18, i32 noundef 1)
  %21 = load ptr, ptr %20, align 8
  %22 = getelementptr inbounds ptr, ptr %21, i64 1
  %23 = load ptr, ptr %22, align 8
  %24 = call noundef i32 %23(ptr noundef nonnull align 8 dereferenceable(8) %20)
  %25 = add i32 %19, %24
  store i32 %25, ptr %9, align 4
  %26 = load i32, ptr %9, align 4
  %27 = call noundef ptr @_ZNK22vlshift_reg_maskedNode10opnd_arrayEj(ptr noundef nonnull align 8 dereferenceable(104) %18, i32 noundef 2)
  %28 = load ptr, ptr %27, align 8
  %29 = getelementptr inbounds ptr, ptr %28, i64 1
  %30 = load ptr, ptr %29, align 8
  %31 = call noundef i32 %30(ptr noundef nonnull align 8 dereferenceable(8) %27)
  %32 = add i32 %26, %31
  store i32 %32, ptr %10, align 4
  %33 = call noundef i32 @_ZL22vector_length_encodingPK4Node(ptr noundef %18)
  store i32 %33, ptr %11, align 4
  %34 = call noundef zeroext i8 @_ZN7Matcher25vector_element_basic_typeEPK4Node(ptr noundef %18)
  store i8 %34, ptr %12, align 1
  %35 = load ptr, ptr %18, align 8
  %36 = getelementptr inbounds ptr, ptr %35, i64 41
  %37 = load ptr, ptr %36, align 8
  %38 = call noundef i32 %37(ptr noundef nonnull align 8 dereferenceable(104) %18)
  store i32 %38, ptr %13, align 4
  %39 = load ptr, ptr %5, align 8
  %40 = load i32, ptr %13, align 4
  %41 = load i8, ptr %12, align 1
  %42 = call noundef ptr @_ZNK22vlshift_reg_maskedNode10opnd_arrayEj(ptr noundef nonnull align 8 dereferenceable(104) %18, i32 noundef 3)
  %43 = load ptr, ptr %6, align 8
  %44 = load i32, ptr %10, align 4
  %45 = call i32 @_ZNK8MachOper12as_KRegisterEP13PhaseRegAllocPK4Nodei(ptr noundef nonnull align 8 dereferenceable(8) %42, ptr noundef %43, ptr noundef %18, i32 noundef %44)
  %46 = getelementptr inbounds %class.KRegister, ptr %14, i32 0, i32 0
  store i32 %45, ptr %46, align 4
  %47 = call noundef ptr @_ZNK22vlshift_reg_maskedNode10opnd_arrayEj(ptr noundef nonnull align 8 dereferenceable(104) %18, i32 noundef 1)
  %48 = load ptr, ptr %6, align 8
  %49 = load i32, ptr %8, align 4
  %50 = call i32 @_ZNK8MachOper14as_XMMRegisterEP13PhaseRegAllocPK4Nodei(ptr noundef nonnull align 8 dereferenceable(8) %47, ptr noundef %48, ptr noundef %18, i32 noundef %49)
  %51 = getelementptr inbounds %class.XMMRegister, ptr %15, i32 0, i32 0
  store i32 %50, ptr %51, align 4
  %52 = call noundef ptr @_ZNK22vlshift_reg_maskedNode10opnd_arrayEj(ptr noundef nonnull align 8 dereferenceable(104) %18, i32 noundef 1)
  %53 = load ptr, ptr %6, align 8
  %54 = load i32, ptr %8, align 4
  %55 = call i32 @_ZNK8MachOper14as_XMMRegisterEP13PhaseRegAllocPK4Nodei(ptr noundef nonnull align 8 dereferenceable(8) %52, ptr noundef %53, ptr noundef %18, i32 noundef %54)
  %56 = getelementptr inbounds %class.XMMRegister, ptr %16, i32 0, i32 0
  store i32 %55, ptr %56, align 4
  %57 = call noundef ptr @_ZNK22vlshift_reg_maskedNode10opnd_arrayEj(ptr noundef nonnull align 8 dereferenceable(104) %18, i32 noundef 2)
  %58 = load ptr, ptr %6, align 8
  %59 = load i32, ptr %9, align 4
  %60 = call i32 @_ZNK8MachOper14as_XMMRegisterEP13PhaseRegAllocPK4Nodei(ptr noundef nonnull align 8 dereferenceable(8) %57, ptr noundef %58, ptr noundef %18, i32 noundef %59)
  %61 = getelementptr inbounds %class.XMMRegister, ptr %17, i32 0, i32 0
  store i32 %60, ptr %61, align 4
  %62 = load i32, ptr %11, align 4
  %63 = getelementptr inbounds %class.KRegister, ptr %14, i32 0, i32 0
  %64 = load i32, ptr %63, align 4
  %65 = getelementptr inbounds %class.XMMRegister, ptr %15, i32 0, i32 0
  %66 = load i32, ptr %65, align 4
  %67 = getelementptr inbounds %class.XMMRegister, ptr %16, i32 0, i32 0
  %68 = load i32, ptr %67, align 4
  %69 = getelementptr inbounds %class.XMMRegister, ptr %17, i32 0, i32 0
  %70 = load i32, ptr %69, align 4
  call void @_ZN17C2_MacroAssembler11evmasked_opEi9BasicType9KRegister11XMMRegisterS2_S2_bib(ptr noundef nonnull align 8 dereferenceable(40) %39, i32 noundef %40, i8 noundef zeroext %41, i32 %64, i32 %66, i32 %68, i32 %70, i1 noundef zeroext true, i32 noundef %62, i1 noundef zeroext false)
  ret void
}